target datalayout = "e-m:e-p270:32:32-p271:32:32-p272:64:64-i64:64-i128:128-f80:128-n8:16:32:64-S128"
target triple = "x86_64-pc-linux-gnu"

%struct.prefix_ctx_st = type { ptr, i32, i32 }

@.str.4 = private unnamed_addr constant [34 x i8] c"../openssl/crypto/bio/bf_prefix.c\00", align 1

; Function Attrs: nounwind uwtable
define internal i32 @prefix_create(ptr noundef %0) #0 {
  %2 = alloca i32, align 4
  %3 = alloca ptr, align 8
  %4 = alloca ptr, align 8
  %5 = alloca i32, align 4
  store ptr %0, ptr %3, align 8, !tbaa !3
  call void @llvm.lifetime.start.p0(i64 8, ptr %4) #4
  %6 = call noalias ptr @CRYPTO_zalloc(i64 noundef 16, ptr noundef @.str.4, i32 noundef 54)
  store ptr %6, ptr %4, align 8, !tbaa !14
  %7 = load ptr, ptr %4, align 8, !tbaa !14
  %8 = icmp eq ptr %7, null
  br i1 %8, label %9, label %10

9:                                                ; preds = %1
  store i32 0, ptr %2, align 4
  store i32 1, ptr %5, align 4
  br label %20

10:                                               ; preds = %1
  %11 = load ptr, ptr %4, align 8, !tbaa !14
  %12 = getelementptr inbounds nuw %struct.prefix_ctx_st, ptr %11, i32 0, i32 0
  store ptr null, ptr %12, align 8, !tbaa !16
  %13 = load ptr, ptr %4, align 8, !tbaa !14
  %14 = getelementptr inbounds nuw %struct.prefix_ctx_st, ptr %13, i32 0, i32 1
  store i32 0, ptr %14, align 8, !tbaa !20
  %15 = load ptr, ptr %4, align 8, !tbaa !14
  %16 = getelementptr inbounds nuw %struct.prefix_ctx_st, ptr %15, i32 0, i32 2
  store i32 1, ptr %16, align 4, !tbaa !21
  %17 = load ptr, ptr %3, align 8, !tbaa !3
  %18 = load ptr, ptr %4, align 8, !tbaa !14
  call void @BIO_set_data(ptr noundef %17, ptr noundef %18)
  %19 = load ptr, ptr %3, align 8, !tbaa !3
  call void @BIO_set_init(ptr noundef %19, i32 noundef 1)
  store i32 1, ptr %2, align 4
  store i32 1, ptr %5, align 4
  br label %20

20:                                               ; preds = %10, %9
  call void @llvm.lifetime.end.p0(i64 8, ptr %4) #4
  %21 = load i32, ptr %2, align 4
  ret i32 %21
}