; Function Attrs: nounwind uwtable
define internal range(i32 0, 2) i32 @prefix_create(ptr noundef %0) #1 {
  %2 = tail call noalias ptr @CRYPTO_zalloc(i64 noundef 16, ptr noundef nonnull @.str.4, i32 noundef 54) #5
  %3 = icmp eq ptr %2, null
  br i1 %3, label %7, label %4

4:                                                ; preds = %1
  store ptr null, ptr %2, align 8, !tbaa !3
  %5 = getelementptr inbounds nuw i8, ptr %2, i64 8
  store i32 0, ptr %5, align 8, !tbaa !11
  %6 = getelementptr inbounds nuw i8, ptr %2, i64 12
  store i32 1, ptr %6, align 4, !tbaa !12
  tail call void @BIO_set_data(ptr noundef %0, ptr noundef nonnull %2) #5
  tail call void @BIO_set_init(ptr noundef %0, i32 noundef 1) #5
  br label %7

7:                                                ; preds = %1, %4
  %.0 = phi i32 [ 1, %4 ], [ 0, %1 ]
  ret i32 %.0
}